target datalayout = "e-m:e-p270:32:32-p271:32:32-p272:64:64-i64:64-i128:128-f80:128-n8:16:32:64-S128"
target triple = "x86_64-pc-linux-gnu"

%struct._generic_N_Vector = type { ptr, ptr, ptr }
%struct._N_VectorContent_Serial = type { i64, i32, ptr }

; Function Attrs: nounwind uwtable
define double @N_VWSqrSumMaskLocal_Serial(ptr noundef %0, ptr noundef %1, ptr noundef %2) #0 {
  %4 = alloca ptr, align 8
  %5 = alloca ptr, align 8
  %6 = alloca ptr, align 8
  %7 = alloca i64, align 8
  %8 = alloca i64, align 8
  %9 = alloca double, align 8
  %10 = alloca double, align 8
  %11 = alloca ptr, align 8
  %12 = alloca ptr, align 8
  %13 = alloca ptr, align 8
  store ptr %0, ptr %4, align 8, !tbaa !10
  store ptr %1, ptr %5, align 8, !tbaa !10
  store ptr %2, ptr %6, align 8, !tbaa !10
  call void @llvm.lifetime.start.p0(i64 8, ptr %7) #6
  call void @llvm.lifetime.start.p0(i64 8, ptr %8) #6
  call void @llvm.lifetime.start.p0(i64 8, ptr %9) #6
  call void @llvm.lifetime.start.p0(i64 8, ptr %10) #6
  call void @llvm.lifetime.start.p0(i64 8, ptr %11) #6
  call void @llvm.lifetime.start.p0(i64 8, ptr %12) #6
  call void @llvm.lifetime.start.p0(i64 8, ptr %13) #6
  store double 0.000000e+00, ptr %9, align 8, !tbaa !72
  store ptr null, ptr %13, align 8, !tbaa !69
  store ptr null, ptr %12, align 8, !tbaa !69
  store ptr null, ptr %11, align 8, !tbaa !69
  %14 = load ptr, ptr %4, align 8, !tbaa !10
  %15 = getelementptr inbounds nuw %struct._generic_N_Vector, ptr %14, i32 0, i32 0
  %16 = load ptr, ptr %15, align 8, !tbaa !61
  %17 = getelementptr inbounds nuw %struct._N_VectorContent_Serial, ptr %16, i32 0, i32 0
  %18 = load i64, ptr %17, align 8, !tbaa !62
  store i64 %18, ptr %8, align 8, !tbaa !3
  %19 = load ptr, ptr %4, align 8, !tbaa !10
  %20 = getelementptr inbounds nuw %struct._generic_N_Vector, ptr %19, i32 0, i32 0
  %21 = load ptr, ptr %20, align 8, !tbaa !61
  %22 = getelementptr inbounds nuw %struct._N_VectorContent_Serial, ptr %21, i32 0, i32 2
  %23 = load ptr, ptr %22, align 8, !tbaa !67
  store ptr %23, ptr %11, align 8, !tbaa !69
  %24 = load ptr, ptr %5, align 8, !tbaa !10
  %25 = getelementptr inbounds nuw %struct._generic_N_Vector, ptr %24, i32 0, i32 0
  %26 = load ptr, ptr %25, align 8, !tbaa !61
  %27 = getelementptr inbounds nuw %struct._N_VectorContent_Serial, ptr %26, i32 0, i32 2
  %28 = load ptr, ptr %27, align 8, !tbaa !67
  store ptr %28, ptr %12, align 8, !tbaa !69
  %29 = load ptr, ptr %6, align 8, !tbaa !10
  %30 = getelementptr inbounds nuw %struct._generic_N_Vector, ptr %29, i32 0, i32 0
  %31 = load ptr, ptr %30, align 8, !tbaa !61
  %32 = getelementptr inbounds nuw %struct._N_VectorContent_Serial, ptr %31, i32 0, i32 2
  %33 = load ptr, ptr %32, align 8, !tbaa !67
  store ptr %33, ptr %13, align 8, !tbaa !69
  store i64 0, ptr %7, align 8, !tbaa !3
  br label %34

34:                                               ; preds = %59, %3
  %35 = load i64, ptr %7, align 8, !tbaa !3
  %36 = load i64, ptr %8, align 8, !tbaa !3
  %37 = icmp slt i64 %35, %36
  br i1 %37, label %38, label %62

38:                                               ; preds = %34
  %39 = load ptr, ptr %13, align 8, !tbaa !69
  %40 = load i64, ptr %7, align 8, !tbaa !3
  %41 = getelementptr inbounds double, ptr %39, i64 %40
  %42 = load double, ptr %41, align 8, !tbaa !72
  %43 = fcmp ogt double %42, 0.000000e+00
  br i1 %43, label %44, label %58

44:                                               ; preds = %38
  %45 = load ptr, ptr %11, align 8, !tbaa !69
  %46 = load i64, ptr %7, align 8, !tbaa !3
  %47 = getelementptr inbounds double, ptr %45, i64 %46
  %48 = load double, ptr %47, align 8, !tbaa !72
  %49 = load ptr, ptr %12, align 8, !tbaa !69
  %50 = load i64, ptr %7, align 8, !tbaa !3
  %51 = getelementptr inbounds double, ptr %49, i64 %50
  %52 = load double, ptr %51, align 8, !tbaa !72
  %53 = fmul double %48, %52
  store double %53, ptr %10, align 8, !tbaa !72
  %54 = load double, ptr %10, align 8, !tbaa !72
  %55 = load double, ptr %10, align 8, !tbaa !72
  %56 = load double, ptr %9, align 8, !tbaa !72
  %57 = call double @llvm.fmuladd.f64(double %54, double %55, double %56)
  store double %57, ptr %9, align 8, !tbaa !72
  br label %58

58:                                               ; preds = %44, %38
  br label %59

59:                                               ; preds = %58
  %60 = load i64, ptr %7, align 8, !tbaa !3
  %61 = add nsw i64 %60, 1
  store i64 %61, ptr %7, align 8, !tbaa !3
  br label %34

62:                                               ; preds = %34
  %63 = load double, ptr %9, align 8, !tbaa !72
  call void @llvm.lifetime.end.p0(i64 8, ptr %13) #6
  call void @llvm.lifetime.end.p0(i64 8, ptr %12) #6
  call void @llvm.lifetime.end.p0(i64 8, ptr %11) #6
  call void @llvm.lifetime.end.p0(i64 8, ptr %10) #6
  call void @llvm.lifetime.end.p0(i64 8, ptr %9) #6
  call void @llvm.lifetime.end.p0(i64 8, ptr %8) #6
  call void @llvm.lifetime.end.p0(i64 8, ptr %7) #6
  ret double %63
}

; Function Attrs: nounwind uwtable
define double @N_VWrmsNormMask_Serial(ptr noundef %0, ptr noundef %1, ptr noundef %2) #0 {
  %4 = alloca ptr, align 8
  %5 = alloca ptr, align 8
  %6 = alloca ptr, align 8
  %7 = alloca ptr, align 8
  %8 = alloca double, align 8
  store ptr %0, ptr %4, align 8, !tbaa !10
  store ptr %1, ptr %5, align 8, !tbaa !10
  store ptr %2, ptr %6, align 8, !tbaa !10
  call void @llvm.lifetime.start.p0(i64 8, ptr %7) #6
  %9 = load ptr, ptr %4, align 8, !tbaa !10
  %10 = getelementptr inbounds nuw %struct._generic_N_Vector, ptr %9, i32 0, i32 2
  %11 = load ptr, ptr %10, align 8, !tbaa !68
  store ptr %11, ptr %7, align 8, !tbaa !7
  call void @llvm.lifetime.start.p0(i64 8, ptr %8) #6
  %12 = load ptr, ptr %4, align 8, !tbaa !10
  %13 = load ptr, ptr %5, align 8, !tbaa !10
  %14 = load ptr, ptr %6, align 8, !tbaa !10
  %15 = call double @N_VWSqrSumMaskLocal_Serial(ptr noundef %12, ptr noundef %13, ptr noundef %14)
  store double %15, ptr %8, align 8, !tbaa !72
  %16 = load double, ptr %8, align 8, !tbaa !72
  %17 = load ptr, ptr %4, align 8, !tbaa !10
  %18 = getelementptr inbounds nuw %struct._generic_N_Vector, ptr %17, i32 0, i32 0
  %19 = load ptr, ptr %18, align 8, !tbaa !61
  %20 = getelementptr inbounds nuw %struct._N_VectorContent_Serial, ptr %19, i32 0, i32 0
  %21 = load i64, ptr %20, align 8, !tbaa !62
  %22 = sitofp i64 %21 to double
  %23 = fdiv double %16, %22
  %24 = fcmp ole double %23, 0.000000e+00
  br i1 %24, label %25, label %26

25:                                               ; preds = %3
  br label %36

26:                                               ; preds = %3
  %27 = load double, ptr %8, align 8, !tbaa !72
  %28 = load ptr, ptr %4, align 8, !tbaa !10
  %29 = getelementptr inbounds nuw %struct._generic_N_Vector, ptr %28, i32 0, i32 0
  %30 = load ptr, ptr %29, align 8, !tbaa !61
  %31 = getelementptr inbounds nuw %struct._N_VectorContent_Serial, ptr %30, i32 0, i32 0
  %32 = load i64, ptr %31, align 8, !tbaa !62
  %33 = sitofp i64 %32 to double
  %34 = fdiv double %27, %33
  %35 = call double @sqrt(double noundef %34) #6, !tbaa !74
  br label %36

36:                                               ; preds = %26, %25
  %37 = phi double [ 0.000000e+00, %25 ], [ %35, %26 ]
  store double %37, ptr %8, align 8, !tbaa !72
  %38 = load double, ptr %8, align 8, !tbaa !72
  call void @llvm.lifetime.end.p0(i64 8, ptr %8) #6
  call void @llvm.lifetime.end.p0(i64 8, ptr %7) #6
  ret double %38
}

; Function Attrs: nounwind uwtable
define i32 @N_VWrmsNormMaskVectorArray_Serial(i32 noundef %0, ptr noundef %1, ptr noundef %2, ptr noundef %3, ptr noundef %4) #0 {
  %6 = alloca i32, align 4
  %7 = alloca i32, align 4
  %8 = alloca ptr, align 8
  %9 = alloca ptr, align 8
  %10 = alloca ptr, align 8
  %11 = alloca ptr, align 8
  %12 = alloca ptr, align 8
  %13 = alloca i32, align 4
  %14 = alloca i64, align 8
  %15 = alloca i64, align 8
  %16 = alloca ptr, align 8
  %17 = alloca ptr, align 8
  %18 = alloca ptr, align 8
  %19 = alloca i32, align 4
  store i32 %0, ptr %7, align 4, !tbaa !74
  store ptr %1, ptr %8, align 8, !tbaa !75
  store ptr %2, ptr %9, align 8, !tbaa !75
  store ptr %3, ptr %10, align 8, !tbaa !10
  store ptr %4, ptr %11, align 8, !tbaa !69
  call void @llvm.lifetime.start.p0(i64 8, ptr %12) #6
  %20 = load ptr, ptr %8, align 8, !tbaa !75
  %21 = getelementptr inbounds ptr, ptr %20, i64 0
  %22 = load ptr, ptr %21, align 8, !tbaa !10
  %23 = getelementptr inbounds nuw %struct._generic_N_Vector, ptr %22, i32 0, i32 2
  %24 = load ptr, ptr %23, align 8, !tbaa !68
  store ptr %24, ptr %12, align 8, !tbaa !7
  call void @llvm.lifetime.start.p0(i64 4, ptr %13) #6
  call void @llvm.lifetime.start.p0(i64 8, ptr %14) #6
  call void @llvm.lifetime.start.p0(i64 8, ptr %15) #6
  call void @llvm.lifetime.start.p0(i64 8, ptr %16) #6
  store ptr null, ptr %16, align 8, !tbaa !69
  call void @llvm.lifetime.start.p0(i64 8, ptr %17) #6
  store ptr null, ptr %17, align 8, !tbaa !69
  call void @llvm.lifetime.start.p0(i64 8, ptr %18) #6
  store ptr null, ptr %18, align 8, !tbaa !69
  %25 = load i32, ptr %7, align 4, !tbaa !74
  %26 = icmp eq i32 %25, 1
  br i1 %26, label %27, label %38

27:                                               ; preds = %5
  %28 = load ptr, ptr %8, align 8, !tbaa !75
  %29 = getelementptr inbounds ptr, ptr %28, i64 0
  %30 = load ptr, ptr %29, align 8, !tbaa !10
  %31 = load ptr, ptr %9, align 8, !tbaa !75
  %32 = getelementptr inbounds ptr, ptr %31, i64 0
  %33 = load ptr, ptr %32, align 8, !tbaa !10
  %34 = load ptr, ptr %10, align 8, !tbaa !10
  %35 = call double @N_VWrmsNormMask_Serial(ptr noundef %30, ptr noundef %33, ptr noundef %34)
  %36 = load ptr, ptr %11, align 8, !tbaa !69
  %37 = getelementptr inbounds double, ptr %36, i64 0
  store double %35, ptr %37, align 8, !tbaa !72
  store i32 0, ptr %6, align 4
  store i32 1, ptr %19, align 4
  br label %148

38:                                               ; preds = %5
  %39 = load ptr, ptr %8, align 8, !tbaa !75
  %40 = getelementptr inbounds ptr, ptr %39, i64 0
  %41 = load ptr, ptr %40, align 8, !tbaa !10
  %42 = getelementptr inbounds nuw %struct._generic_N_Vector, ptr %41, i32 0, i32 0
  %43 = load ptr, ptr %42, align 8, !tbaa !61
  %44 = getelementptr inbounds nuw %struct._N_VectorContent_Serial, ptr %43, i32 0, i32 0
  %45 = load i64, ptr %44, align 8, !tbaa !62
  store i64 %45, ptr %15, align 8, !tbaa !3
  %46 = load ptr, ptr %10, align 8, !tbaa !10
  %47 = getelementptr inbounds nuw %struct._generic_N_Vector, ptr %46, i32 0, i32 0
  %48 = load ptr, ptr %47, align 8, !tbaa !61
  %49 = getelementptr inbounds nuw %struct._N_VectorContent_Serial, ptr %48, i32 0, i32 2
  %50 = load ptr, ptr %49, align 8, !tbaa !67
  store ptr %50, ptr %18, align 8, !tbaa !69
  store i32 0, ptr %13, align 4, !tbaa !74
  br label %51

51:                                               ; preds = %144, %38
  %52 = load i32, ptr %13, align 4, !tbaa !74
  %53 = load i32, ptr %7, align 4, !tbaa !74
  %54 = icmp slt i32 %52, %53
  br i1 %54, label %55, label %147

55:                                               ; preds = %51
  %56 = load ptr, ptr %8, align 8, !tbaa !75
  %57 = load i32, ptr %13, align 4, !tbaa !74
  %58 = sext i32 %57 to i64
  %59 = getelementptr inbounds ptr, ptr %56, i64 %58
  %60 = load ptr, ptr %59, align 8, !tbaa !10
  %61 = getelementptr inbounds nuw %struct._generic_N_Vector, ptr %60, i32 0, i32 0
  %62 = load ptr, ptr %61, align 8, !tbaa !61
  %63 = getelementptr inbounds nuw %struct._N_VectorContent_Serial, ptr %62, i32 0, i32 2
  %64 = load ptr, ptr %63, align 8, !tbaa !67
  store ptr %64, ptr %17, align 8, !tbaa !69
  %65 = load ptr, ptr %9, align 8, !tbaa !75
  %66 = load i32, ptr %13, align 4, !tbaa !74
  %67 = sext i32 %66 to i64
  %68 = getelementptr inbounds ptr, ptr %65, i64 %67
  %69 = load ptr, ptr %68, align 8, !tbaa !10
  %70 = getelementptr inbounds nuw %struct._generic_N_Vector, ptr %69, i32 0, i32 0
  %71 = load ptr, ptr %70, align 8, !tbaa !61
  %72 = getelementptr inbounds nuw %struct._N_VectorContent_Serial, ptr %71, i32 0, i32 2
  %73 = load ptr, ptr %72, align 8, !tbaa !67
  store ptr %73, ptr %16, align 8, !tbaa !69
  %74 = load ptr, ptr %11, align 8, !tbaa !69
  %75 = load i32, ptr %13, align 4, !tbaa !74
  %76 = sext i32 %75 to i64
  %77 = getelementptr inbounds double, ptr %74, i64 %76
  store double 0.000000e+00, ptr %77, align 8, !tbaa !72
  store i64 0, ptr %14, align 8, !tbaa !3
  br label %78

78:                                               ; preds = %114, %55
  %79 = load i64, ptr %14, align 8, !tbaa !3
  %80 = load i64, ptr %15, align 8, !tbaa !3
  %81 = icmp slt i64 %79, %80
  br i1 %81, label %82, label %117

82:                                               ; preds = %78
  %83 = load ptr, ptr %18, align 8, !tbaa !69
  %84 = load i64, ptr %14, align 8, !tbaa !3
  %85 = getelementptr inbounds double, ptr %83, i64 %84
  %86 = load double, ptr %85, align 8, !tbaa !72
  %87 = fcmp ogt double %86, 0.000000e+00
  br i1 %87, label %88, label %113

88:                                               ; preds = %82
  %89 = load ptr, ptr %17, align 8, !tbaa !69
  %90 = load i64, ptr %14, align 8, !tbaa !3
  %91 = getelementptr inbounds double, ptr %89, i64 %90
  %92 = load double, ptr %91, align 8, !tbaa !72
  %93 = load ptr, ptr %16, align 8, !tbaa !69
  %94 = load i64, ptr %14, align 8, !tbaa !3
  %95 = getelementptr inbounds double, ptr %93, i64 %94
  %96 = load double, ptr %95, align 8, !tbaa !72
  %97 = fmul double %92, %96
  %98 = load ptr, ptr %17, align 8, !tbaa !69
  %99 = load i64, ptr %14, align 8, !tbaa !3
  %100 = getelementptr inbounds double, ptr %98, i64 %99
  %101 = load double, ptr %100, align 8, !tbaa !72
  %102 = load ptr, ptr %16, align 8, !tbaa !69
  %103 = load i64, ptr %14, align 8, !tbaa !3
  %104 = getelementptr inbounds double, ptr %102, i64 %103
  %105 = load double, ptr %104, align 8, !tbaa !72
  %106 = fmul double %101, %105
  %107 = load ptr, ptr %11, align 8, !tbaa !69
  %108 = load i32, ptr %13, align 4, !tbaa !74
  %109 = sext i32 %108 to i64
  %110 = getelementptr inbounds double, ptr %107, i64 %109
  %111 = load double, ptr %110, align 8, !tbaa !72
  %112 = call double @llvm.fmuladd.f64(double %97, double %106, double %111)
  store double %112, ptr %110, align 8, !tbaa !72
  br label %113

113:                                              ; preds = %88, %82
  br label %114

114:                                              ; preds = %113
  %115 = load i64, ptr %14, align 8, !tbaa !3
  %116 = add nsw i64 %115, 1
  store i64 %116, ptr %14, align 8, !tbaa !3
  br label %78

117:                                              ; preds = %78
  %118 = load ptr, ptr %11, align 8, !tbaa !69
  %119 = load i32, ptr %13, align 4, !tbaa !74
  %120 = sext i32 %119 to i64
  %121 = getelementptr inbounds double, ptr %118, i64 %120
  %122 = load double, ptr %121, align 8, !tbaa !72
  %123 = load i64, ptr %15, align 8, !tbaa !3
  %124 = sitofp i64 %123 to double
  %125 = fdiv double %122, %124
  %126 = fcmp ole double %125, 0.000000e+00
  br i1 %126, label %127, label %128

127:                                              ; preds = %117
  br label %138

128:                                              ; preds = %117
  %129 = load ptr, ptr %11, align 8, !tbaa !69
  %130 = load i32, ptr %13, align 4, !tbaa !74
  %131 = sext i32 %130 to i64
  %132 = getelementptr inbounds double, ptr %129, i64 %131
  %133 = load double, ptr %132, align 8, !tbaa !72
  %134 = load i64, ptr %15, align 8, !tbaa !3
  %135 = sitofp i64 %134 to double
  %136 = fdiv double %133, %135
  %137 = call double @sqrt(double noundef %136) #6, !tbaa !74
  br label %138

138:                                              ; preds = %128, %127
  %139 = phi double [ 0.000000e+00, %127 ], [ %137, %128 ]
  %140 = load ptr, ptr %11, align 8, !tbaa !69
  %141 = load i32, ptr %13, align 4, !tbaa !74
  %142 = sext i32 %141 to i64
  %143 = getelementptr inbounds double, ptr %140, i64 %142
  store double %139, ptr %143, align 8, !tbaa !72
  br label %144

144:                                              ; preds = %138
  %145 = load i32, ptr %13, align 4, !tbaa !74
  %146 = add nsw i32 %145, 1
  store i32 %146, ptr %13, align 4, !tbaa !74
  br label %51

147:                                              ; preds = %51
  store i32 0, ptr %6, align 4
  store i32 1, ptr %19, align 4
  br label %148

148:                                              ; preds = %147, %27
  call void @llvm.lifetime.end.p0(i64 8, ptr %18) #6
  call void @llvm.lifetime.end.p0(i64 8, ptr %17) #6
  call void @llvm.lifetime.end.p0(i64 8, ptr %16) #6
  call void @llvm.lifetime.end.p0(i64 8, ptr %15) #6
  call void @llvm.lifetime.end.p0(i64 8, ptr %14) #6
  call void @llvm.lifetime.end.p0(i64 4, ptr %13) #6
  call void @llvm.lifetime.end.p0(i64 8, ptr %12) #6
  %149 = load i32, ptr %6, align 4
  ret i32 %149
}