; Function Attrs: nofree nounwind memory(readwrite, inaccessiblemem: write) uwtable
define noundef i32 @N_VWrmsNormMaskVectorArray_Serial(i32 noundef %0, ptr noundef readonly captures(none) %1, ptr noundef readonly captures(none) %2, ptr noundef readonly captures(none) %3, ptr noundef writeonly captures(none) %4) #9 {
  %6 = load ptr, ptr %1, align 8, !tbaa !67
  %7 = icmp eq i32 %0, 1
  br i1 %7, label %8, label %39

8:                                                ; preds = %5
  %9 = load ptr, ptr %2, align 8, !tbaa !67
  %10 = load ptr, ptr %6, align 8, !tbaa !54
  %11 = load i64, ptr %10, align 8, !tbaa !55
  %12 = getelementptr inbounds nuw i8, ptr %10, i64 16
  %13 = load ptr, ptr %12, align 8, !tbaa !61
  %14 = load ptr, ptr %9, align 8, !tbaa !54
  %15 = getelementptr inbounds nuw i8, ptr %14, i64 16
  %16 = load ptr, ptr %15, align 8, !tbaa !61
  %17 = load ptr, ptr %3, align 8, !tbaa !54
  %18 = getelementptr inbounds nuw i8, ptr %17, i64 16
  %19 = load ptr, ptr %18, align 8, !tbaa !61
  %20 = icmp sgt i64 %11, 0
  br i1 %20, label %.lr.ph.i.i, label %N_VWSqrSumMaskLocal_Serial.exit.i

.lr.ph.i.i:                                       ; preds = %8, %31
  %.018.i.i = phi i64 [ %32, %31 ], [ 0, %8 ]
  %.01617.i.i = phi double [ %.1.i.i, %31 ], [ 0.000000e+00, %8 ]
  %21 = getelementptr inbounds nuw double, ptr %19, i64 %.018.i.i
  %22 = load double, ptr %21, align 8, !tbaa !64
  %23 = fcmp ogt double %22, 0.000000e+00
  br i1 %23, label %24, label %31

24:                                               ; preds = %.lr.ph.i.i
  %25 = getelementptr inbounds nuw double, ptr %13, i64 %.018.i.i
  %26 = load double, ptr %25, align 8, !tbaa !64
  %27 = getelementptr inbounds nuw double, ptr %16, i64 %.018.i.i
  %28 = load double, ptr %27, align 8, !tbaa !64
  %29 = fmul double %26, %28
  %30 = tail call double @llvm.fmuladd.f64(double %29, double %29, double %.01617.i.i)
  br label %31

31:                                               ; preds = %24, %.lr.ph.i.i
  %.1.i.i = phi double [ %30, %24 ], [ %.01617.i.i, %.lr.ph.i.i ]
  %32 = add nuw nsw i64 %.018.i.i, 1
  %exitcond.not.i.i = icmp eq i64 %32, %11
  br i1 %exitcond.not.i.i, label %N_VWSqrSumMaskLocal_Serial.exit.i, label %.lr.ph.i.i

N_VWSqrSumMaskLocal_Serial.exit.i:                ; preds = %31, %8
  %.016.lcssa.i.i = phi double [ 0.000000e+00, %8 ], [ %.1.i.i, %31 ]
  %33 = sitofp i64 %11 to double
  %34 = fdiv double %.016.lcssa.i.i, %33
  %35 = fcmp ugt double %34, 0.000000e+00
  br i1 %35, label %36, label %N_VWrmsNormMask_Serial.exit

36:                                               ; preds = %N_VWSqrSumMaskLocal_Serial.exit.i
  %37 = tail call double @sqrt(double noundef %34) #20, !tbaa !66
  br label %N_VWrmsNormMask_Serial.exit

N_VWrmsNormMask_Serial.exit:                      ; preds = %N_VWSqrSumMaskLocal_Serial.exit.i, %36
  %38 = phi double [ %37, %36 ], [ 0.000000e+00, %N_VWSqrSumMaskLocal_Serial.exit.i ]
  store double %38, ptr %4, align 8, !tbaa !64
  br label %.loopexit

39:                                               ; preds = %5
  %40 = load ptr, ptr %6, align 8, !tbaa !54
  %41 = load i64, ptr %40, align 8, !tbaa !55
  %42 = load ptr, ptr %3, align 8, !tbaa !54
  %43 = getelementptr inbounds nuw i8, ptr %42, i64 16
  %44 = load ptr, ptr %43, align 8, !tbaa !61
  %45 = icmp sgt i32 %0, 0
  br i1 %45, label %.lr.ph47, label %.loopexit

.lr.ph47:                                         ; preds = %39
  %46 = icmp sgt i64 %41, 0
  %47 = sitofp i64 %41 to double
  %wide.trip.count54 = zext nneg i32 %0 to i64
  br i1 %46, label %.lr.ph.us, label %.lr.ph47.split.preheader

.lr.ph47.split.preheader:                         ; preds = %.lr.ph47
  %48 = fdiv double 0.000000e+00, %47
  %49 = fcmp ugt double %48, 0.000000e+00
  br label %.lr.ph47.split

.lr.ph.us:                                        ; preds = %.lr.ph47, %63
  %indvars.iv51 = phi i64 [ %indvars.iv.next52, %63 ], [ 0, %.lr.ph47 ]
  %50 = getelementptr inbounds nuw ptr, ptr %1, i64 %indvars.iv51
  %51 = load ptr, ptr %50, align 8, !tbaa !67
  %52 = load ptr, ptr %51, align 8, !tbaa !54
  %53 = getelementptr inbounds nuw i8, ptr %52, i64 16
  %54 = load ptr, ptr %53, align 8, !tbaa !61
  %55 = getelementptr inbounds nuw ptr, ptr %2, i64 %indvars.iv51
  %56 = load ptr, ptr %55, align 8, !tbaa !67
  %57 = load ptr, ptr %56, align 8, !tbaa !54
  %58 = getelementptr inbounds nuw i8, ptr %57, i64 16
  %59 = load ptr, ptr %58, align 8, !tbaa !61
  %60 = getelementptr inbounds nuw double, ptr %4, i64 %indvars.iv51
  store double 0.000000e+00, ptr %60, align 8, !tbaa !64
  br label %65

61:                                               ; preds = %._crit_edge.us
  %62 = tail call double @sqrt(double noundef %80) #20, !tbaa !66
  br label %63

63:                                               ; preds = %61, %._crit_edge.us
  %64 = phi double [ %62, %61 ], [ 0.000000e+00, %._crit_edge.us ]
  store double %64, ptr %60, align 8, !tbaa !64
  %indvars.iv.next52 = add nuw nsw i64 %indvars.iv51, 1
  %exitcond55.not = icmp eq i64 %indvars.iv.next52, %wide.trip.count54
  br i1 %exitcond55.not, label %.loopexit, label %.lr.ph.us

65:                                               ; preds = %.lr.ph.us, %77
  %66 = phi double [ 0.000000e+00, %.lr.ph.us ], [ %78, %77 ]
  %.04044.us = phi i64 [ 0, %.lr.ph.us ], [ %79, %77 ]
  %67 = getelementptr inbounds nuw double, ptr %44, i64 %.04044.us
  %68 = load double, ptr %67, align 8, !tbaa !64
  %69 = fcmp ogt double %68, 0.000000e+00
  br i1 %69, label %70, label %77

70:                                               ; preds = %65
  %71 = getelementptr inbounds nuw double, ptr %54, i64 %.04044.us
  %72 = load double, ptr %71, align 8, !tbaa !64
  %73 = getelementptr inbounds nuw double, ptr %59, i64 %.04044.us
  %74 = load double, ptr %73, align 8, !tbaa !64
  %75 = fmul double %72, %74
  %76 = tail call double @llvm.fmuladd.f64(double %75, double %75, double %66)
  store double %76, ptr %60, align 8, !tbaa !64
  br label %77

77:                                               ; preds = %70, %65
  %78 = phi double [ %76, %70 ], [ %66, %65 ]
  %79 = add nuw nsw i64 %.04044.us, 1
  %exitcond50.not = icmp eq i64 %79, %41
  br i1 %exitcond50.not, label %._crit_edge.us, label %65

._crit_edge.us:                                   ; preds = %77
  %80 = fdiv double %78, %47
  %81 = fcmp ugt double %80, 0.000000e+00
  br i1 %81, label %61, label %63

.lr.ph47.split:                                   ; preds = %.lr.ph47.split.preheader, %85
  %indvars.iv = phi i64 [ 0, %.lr.ph47.split.preheader ], [ %indvars.iv.next, %85 ]
  %82 = getelementptr inbounds nuw double, ptr %4, i64 %indvars.iv
  br i1 %49, label %83, label %85

83:                                               ; preds = %.lr.ph47.split
  %84 = tail call double @sqrt(double noundef %48) #20, !tbaa !66
  br label %85

85:                                               ; preds = %.lr.ph47.split, %83
  %86 = phi double [ %84, %83 ], [ 0.000000e+00, %.lr.ph47.split ]
  store double %86, ptr %82, align 8, !tbaa !64
  %indvars.iv.next = add nuw nsw i64 %indvars.iv, 1
  %exitcond.not = icmp eq i64 %indvars.iv.next, %wide.trip.count54
  br i1 %exitcond.not, label %.loopexit, label %.lr.ph47.split

.loopexit:                                        ; preds = %85, %63, %39, %N_VWrmsNormMask_Serial.exit
  ret i32 0
}